
Discarded input sections

 .text          0x0000000000000000        0x0 ./asm_functions.o
 .data          0x0000000000000000        0x0 ./asm_functions.o
 .bss           0x0000000000000000        0x0 ./asm_functions.o
 .text.svm_correct_current_towards_asm
                0x0000000000000000        0x4 ./asm_functions.o
 .text.fsqrt    0x0000000000000000        0x4 ./asm_functions.o
 .group         0x0000000000000000        0x8 ./main.o
 .group         0x0000000000000000        0x8 ./main.o
 .group         0x0000000000000000        0x8 ./main.o
 .group         0x0000000000000000        0x8 ./main.o
 .group         0x0000000000000000        0x8 ./main.o
 .group         0x0000000000000000        0x8 ./main.o
 .group         0x0000000000000000        0x8 ./main.o
 .group         0x0000000000000000        0x8 ./main.o
 .group         0x0000000000000000        0x8 ./main.o
 .text          0x0000000000000000        0x0 ./main.o
 .data          0x0000000000000000        0x0 ./main.o
 .bss           0x0000000000000000        0x0 ./main.o
 .text.zero_mem_section
                0x0000000000000000       0x10 ./main.o
 .text.copy_mem_section
                0x0000000000000000       0x14 ./main.o
 .text.process_data
                0x0000000000000000       0x94 ./main.o
 .text.stator_field_controll
                0x0000000000000000        0x4 ./main.o
 .text.optimize_advance_angle
                0x0000000000000000        0x4 ./main.o
 .text.calculate_desired_current
                0x0000000000000000       0x3c ./main.o
 .text.calibrate_encoder
                0x0000000000000000      0x100 ./main.o
 .text.query_encoder_table
                0x0000000000000000        0x4 ./main.o
 .text.wait     0x0000000000000000        0x4 ./main.o
 .text.write_to_flash
                0x0000000000000000        0x4 ./main.o
 .bss.mtpa_lut  0x0000000000000000     0x4000 ./main.o
 .bss.faultcodes
                0x0000000000000000        0x8 ./main.o
 .bss.rotary_resolver_correction_lut
                0x0000000000000000      0x100 ./main.o
 .bss.uv_lockout
                0x0000000000000000        0x4 ./main.o
 .bss.sensorless
                0x0000000000000000        0x1 ./main.o
 .bss.faultcodes_index
                0x0000000000000000        0x1 ./main.o
 .bss.max_current
                0x0000000000000000        0x4 ./main.o
 .rodata.switch_state_vectors
                0x0000000000000000       0x30 ./main.o
 .bss.uv_lockout_release
                0x0000000000000000        0x4 ./main.o
 .bss.ov_lockout_release
                0x0000000000000000        0x4 ./main.o
 .bss.ov_lockout
                0x0000000000000000        0x4 ./main.o
 .bss.prev_speed_per_amp
                0x0000000000000000        0x4 ./main.o
 .bss.max_speed
                0x0000000000000000        0x4 ./main.o
 .text          0x0000000000000000        0x0 ./startup.o
 .data          0x0000000000000000        0x0 ./startup.o
 .bss           0x0000000000000000        0x0 ./startup.o

Memory Configuration

Name             Origin             Length             Attributes
FLASH            0x0000000008000000 0x0000000000080000 xr
RAM              0x0000000020000000 0x000000000001c000 xrw
RAM_BANK_2       0x000000002001c000 0x0000000000003000 xrw
CCMRAM           0x0000000010000000 0x0000000000010000 rw
*default*        0x0000000000000000 0xffffffffffffffff

Linker script and memory map

LOAD ./asm_functions.o
LOAD ./main.o
LOAD ./startup.o
                0x0000000000002000                STACK_SIZE = 0x2000
                0x0000000010010000                _estack = (ORIGIN (CCMRAM) + LENGTH (CCMRAM))
                0x000000001000e000                _sstack = (_estack - STACK_SIZE)

.text           0x0000000008000000      0x604
 FILL mask 0xff
                0x0000000008000000                _svtflash = .
 *(.vector_table)
 .vector_table  0x0000000008000000      0x188 ./startup.o
                0x0000000008000000                Vectors
                0x0000000008000188                _evtflash = .
                0x0000000008000188                . = ALIGN (0x4)
 *(.text)
 *(.text.*)
 .text.fsine_cosine
                0x0000000008000188       0x44 ./asm_functions.o
                0x0000000008000188                fsine_cosine
 .text.fix32invtan
                0x00000000080001cc        0x4 ./asm_functions.o
                0x00000000080001cc                fix32invtan
 .text.svm_correct_current_towards
                0x00000000080001d0      0x160 ./main.o
                0x00000000080001d0                svm_correct_current_towards
 .text.startup.main
                0x0000000008000330      0x104 ./main.o
                0x0000000008000330                main
 .text.init_system
                0x0000000008000434      0x17c ./main.o
                0x0000000008000434                init_system
 .text.ADC_IRQHandler
                0x00000000080005b0        0x4 ./main.o
                0x00000000080005b0                ADC_IRQHandler
 .text.TIM2_IRQHandler
                0x00000000080005b4       0x34 ./main.o
                0x00000000080005b4                TIM2_IRQHandler
 .text.default_handler
                0x00000000080005e8        0x4 ./startup.o
                0x00000000080005e8                RTC_Alarm_IRQHandler
                0x00000000080005e8                HASH_RNG_IRQHandler
                0x00000000080005e8                EXTI2_IRQHandler
                0x00000000080005e8                TIM8_CC_IRQHandler
                0x00000000080005e8                DebugMon_Handler
                0x00000000080005e8                TIM1_CC_IRQHandler
                0x00000000080005e8                DMA2_Stream5_IRQHandler
                0x00000000080005e8                HardFault_Handler
                0x00000000080005e8                DMA1_Stream5_IRQHandler
                0x00000000080005e8                SysTick_Handler
                0x00000000080005e8                PVD_IRQHandler
                0x00000000080005e8                SDIO_IRQHandler
                0x00000000080005e8                TAMP_STAMP_IRQHandler
                0x00000000080005e8                PendSV_Handler
                0x00000000080005e8                NMI_Handler
                0x00000000080005e8                CAN2_RX1_IRQHandler
                0x00000000080005e8                EXTI3_IRQHandler
                0x00000000080005e8                TIM8_TRG_COM_TIM14_IRQHandler
                0x00000000080005e8                TIM1_UP_TIM10_IRQHandler
                0x00000000080005e8                TIM8_UP_TIM13_IRQHandler
                0x00000000080005e8                I2C3_ER_IRQHandler
                0x00000000080005e8                EXTI0_IRQHandler
                0x00000000080005e8                I2C2_EV_IRQHandler
                0x00000000080005e8                DMA1_Stream2_IRQHandler
                0x00000000080005e8                CAN1_RX0_IRQHandler
                0x00000000080005e8                FPU_IRQHandler
                0x00000000080005e8                OTG_HS_WKUP_IRQHandler
                0x00000000080005e8                UsageFault_Handler
                0x00000000080005e8                CAN2_SCE_IRQHandler
                0x00000000080005e8                DMA2_Stream2_IRQHandler
                0x00000000080005e8                SPI1_IRQHandler
                0x00000000080005e8                TIM6_DAC_IRQHandler
                0x00000000080005e8                TIM1_BRK_TIM9_IRQHandler
                0x00000000080005e8                DCMI_IRQHandler
                0x00000000080005e8                CAN2_RX0_IRQHandler
                0x00000000080005e8                DMA2_Stream3_IRQHandler
                0x00000000080005e8                default_handler
                0x00000000080005e8                USART6_IRQHandler
                0x00000000080005e8                USART3_IRQHandler
                0x00000000080005e8                CRYP_IRQHandler
                0x00000000080005e8                CAN1_RX1_IRQHandler
                0x00000000080005e8                UART5_IRQHandler
                0x00000000080005e8                DMA2_Stream0_IRQHandler
                0x00000000080005e8                TIM4_IRQHandler
                0x00000000080005e8                I2C1_EV_IRQHandler
                0x00000000080005e8                DMA1_Stream6_IRQHandler
                0x00000000080005e8                DMA1_Stream1_IRQHandler
                0x00000000080005e8                UART4_IRQHandler
                0x00000000080005e8                TIM3_IRQHandler
                0x00000000080005e8                RCC_IRQHandler
                0x00000000080005e8                TIM8_BRK_TIM12_IRQHandler
                0x00000000080005e8                EXTI15_10_IRQHandler
                0x00000000080005e8                DMA1_Stream7_IRQHandler
                0x00000000080005e8                TIM7_IRQHandler
                0x00000000080005e8                CAN2_TX_IRQHandler
                0x00000000080005e8                TIM5_IRQHandler
                0x00000000080005e8                DMA2_Stream7_IRQHandler
                0x00000000080005e8                I2C3_EV_IRQHandler
                0x00000000080005e8                EXTI9_5_IRQHandler
                0x00000000080005e8                RTC_WKUP_IRQHandler
                0x00000000080005e8                ETH_WKUP_IRQHandler
                0x00000000080005e8                SPI2_IRQHandler
                0x00000000080005e8                OTG_HS_EP1_IN_IRQHandler
                0x00000000080005e8                MemManage_Handler
                0x00000000080005e8                DMA1_Stream0_IRQHandler
                0x00000000080005e8                CAN1_TX_IRQHandler
                0x00000000080005e8                SVC_Handler
                0x00000000080005e8                EXTI4_IRQHandler
                0x00000000080005e8                FSMC_IRQHandler
                0x00000000080005e8                ETH_IRQHandler
                0x00000000080005e8                OTG_HS_EP1_OUT_IRQHandler
                0x00000000080005e8                WWDG_IRQHandler
                0x00000000080005e8                OTG_FS_WKUP_IRQHandler
                0x00000000080005e8                TIM1_TRG_COM_TIM11_IRQHandler
                0x00000000080005e8                OTG_HS_IRQHandler
                0x00000000080005e8                EXTI1_IRQHandler
                0x00000000080005e8                USART2_IRQHandler
                0x00000000080005e8                I2C2_ER_IRQHandler
                0x00000000080005e8                DMA2_Stream1_IRQHandler
                0x00000000080005e8                CAN1_SCE_IRQHandler
                0x00000000080005e8                FLASH_IRQHandler
                0x00000000080005e8                DMA2_Stream4_IRQHandler
                0x00000000080005e8                BusFault_Handler
                0x00000000080005e8                USART1_IRQHandler
                0x00000000080005e8                OTG_FS_IRQHandler
                0x00000000080005e8                SPI3_IRQHandler
                0x00000000080005e8                DMA1_Stream4_IRQHandler
                0x00000000080005e8                I2C1_ER_IRQHandler
                0x00000000080005e8                DMA2_Stream6_IRQHandler
                0x00000000080005e8                DMA1_Stream3_IRQHandler
 *(.rodata)
 .rodata        0x00000000080005ec       0x18 ./main.o
 *(.fini)
 *(.rodata*)
 *(.glue_7)
 .glue_7        0x0000000008000604        0x0 linker stubs
 *(.glue_7t)
 .glue_7t       0x0000000008000604        0x0 linker stubs
                0x0000000008000604                . = ALIGN (0x4)
                0x0000000008000604                _etext = .
                0x0000000008000604                _sidata = _etext
                0x0000000008000604                _eidata = .

.vfp11_veneer   0x0000000008000604        0x0
 .vfp11_veneer  0x0000000008000604        0x0 linker stubs

.v4_bx          0x0000000008000604        0x0
 .v4_bx         0x0000000008000604        0x0 linker stubs

.iplt           0x0000000008000604        0x0
 .iplt          0x0000000008000604        0x0 ./asm_functions.o

.rel.dyn        0x0000000008000604        0x0
 .rel.iplt      0x0000000008000604        0x0 ./asm_functions.o

.data           0x0000000020000000     0x1000 load address 0x0000000008000604
 FILL mask 0xff
                0x0000000020000000                . = ALIGN (0x4)
                0x0000000020000000                _sdata = .
 *(.data)
 *(.data.*)
 .data.cosine_table
                0x0000000020000000     0x1000 ./main.o
                0x0000000020000000                cosine_table
                0x0000000020001000                . = ALIGN (0x4)
                0x0000000020001000                _edata = .

.igot.plt       0x0000000020001000        0x0 load address 0x0000000008001604
 .igot.plt      0x0000000020001000        0x0 ./asm_functions.o

.bss            0x0000000020001000       0x24 load address 0x0000000008001604
                0x0000000020001000                . = ALIGN (0x4)
                0x0000000020001000                _sbss = .
 *(.bss)
 *(.bss.*)
 .bss.n_polepairs_per_pairs_sense_magnet
                0x0000000020001000        0x1 ./main.o
                0x0000000020001000                n_polepairs_per_pairs_sense_magnet
 *fill*         0x0000000020001001        0x3 
 .bss.angle_advance
                0x0000000020001004        0x4 ./main.o
                0x0000000020001004                angle_advance
 .bss.flux_linkage
                0x0000000020001008        0x4 ./main.o
                0x0000000020001008                flux_linkage
 .bss.requested_current
                0x000000002000100c        0x4 ./main.o
                0x000000002000100c                requested_current
 .bss.commutating
                0x0000000020001010        0x1 ./main.o
                0x0000000020001010                commutating
 *fill*         0x0000000020001011        0x3 
 .bss.i_a       0x0000000020001014        0x4 ./main.o
                0x0000000020001014                i_a
 .bss.i_b       0x0000000020001018        0x4 ./main.o
                0x0000000020001018                i_b
 .bss.i_c       0x000000002000101c        0x4 ./main.o
                0x000000002000101c                i_c
 .bss.rotor_e_pos
                0x0000000020001020        0x4 ./main.o
                0x0000000020001020                rotor_e_pos
 *(COMMON)
                0x0000000020001024                . = ALIGN (0x4)
                0x0000000020001024                _ebss = .

.ram_bank_2     0x000000002001c000       0x10
                0x000000002001c000                . = ALIGN (0x4)
                0x000000002001c000                _sram_bank_2 = .
 *(.ram_bank_2)
 .ram_bank_2    0x000000002001c000       0x10 ./main.o
                0x000000002001c000                adc_circ_buffer
 *(.ram_bank_2.*)
 *(COMMON)
                0x000000002001c010                . = ALIGN (0x4)
                0x000000002001c010                _eram_bank_2 = .

.ccmram         0x0000000010000000        0x0
                0x0000000010000000                . = ALIGN (0x4)
                0x0000000010000000                _sccmram = .
 *(.ccmram)
 *(.ccmram*)
                0x0000000010000000                . = ALIGN (0x4)
                0x0000000010000000                _eccmram = .
                0x000000001000e000                . = _sstack

.stack          0x0000000010000000     0x2000
                0x0000000010002000                . = (. + STACK_SIZE)
 *fill*         0x0000000010000000     0x2000 
OUTPUT(motor_controller.elf elf32-littlearm)

.ARM.attributes
                0x0000000000000000       0x35
 .ARM.attributes
                0x0000000000000000       0x25 ./asm_functions.o
 .ARM.attributes
                0x0000000000000025       0x39 ./main.o
 .ARM.attributes
                0x000000000000005e       0x25 ./startup.o

.comment        0x0000000000000000       0x2b
 .comment       0x0000000000000000       0x2b ./main.o
                                         0x2c (size before relaxing)

.debug_line     0x0000000000000000      0x538
 .debug_line    0x0000000000000000       0x86 ./asm_functions.o
 .debug_line    0x0000000000000086      0x475 ./main.o
 .debug_line    0x00000000000004fb       0x3d ./startup.o

.debug_info     0x0000000000000000     0x1260
 .debug_info    0x0000000000000000       0x70 ./asm_functions.o
 .debug_info    0x0000000000000070     0x1182 ./main.o
 .debug_info    0x00000000000011f2       0x6e ./startup.o

.debug_abbrev   0x0000000000000000      0x345
 .debug_abbrev  0x0000000000000000       0x12 ./asm_functions.o
 .debug_abbrev  0x0000000000000012      0x31f ./main.o
 .debug_abbrev  0x0000000000000331       0x14 ./startup.o

.debug_aranges  0x0000000000000000       0xe0
 .debug_aranges
                0x0000000000000000       0x38 ./asm_functions.o
 .debug_aranges
                0x0000000000000038       0x88 ./main.o
 .debug_aranges
                0x00000000000000c0       0x20 ./startup.o

.debug_ranges   0x0000000000000000      0x158
 .debug_ranges  0x0000000000000000       0x30 ./asm_functions.o
 .debug_ranges  0x0000000000000030      0x128 ./main.o

.debug_loc      0x0000000000000000      0x3db
 .debug_loc     0x0000000000000000      0x3db ./main.o

.debug_macro    0x0000000000000000     0xadd2
 .debug_macro   0x0000000000000000       0xc7 ./main.o
 .debug_macro   0x00000000000000c7      0x886 ./main.o
 .debug_macro   0x000000000000094d       0x65 ./main.o
 .debug_macro   0x00000000000009b2       0x3b ./main.o
 .debug_macro   0x00000000000009ed      0x34e ./main.o
 .debug_macro   0x0000000000000d3b       0x34 ./main.o
 .debug_macro   0x0000000000000d6f       0x26 ./main.o
 .debug_macro   0x0000000000000d95      0xe43 ./main.o
 .debug_macro   0x0000000000001bd8     0x91de ./main.o
 .debug_macro   0x000000000000adb6       0x1c ./main.o

.debug_str      0x0000000000000000    0x3bb18
 .debug_str     0x0000000000000000    0x3bb18 ./main.o
                                      0x3bcd0 (size before relaxing)

.debug_frame    0x0000000000000000      0x1b0
 .debug_frame   0x0000000000000000      0x1b0 ./main.o
